target datalayout = "e-m:e-p270:32:32-p271:32:32-p272:64:64-i64:64-i128:128-f80:128-n8:16:32:64-S128"
target triple = "x86_64-pc-linux-gnu"

%"class.nanogui::Color" = type { %"struct.nanogui::Array" }
%"struct.nanogui::Array" = type { [4 x float] }
%"class.std::__1::basic_string" = type { %"class.std::__1::__compressed_pair.4" }
%"class.std::__1::__compressed_pair.4" = type { %"struct.std::__1::__compressed_pair_elem.5" }
%"struct.std::__1::__compressed_pair_elem.5" = type { %"struct.std::__1::basic_string<char>::__rep" }
%"struct.std::__1::basic_string<char>::__rep" = type { %union.anon }
%union.anon = type { %"struct.std::__1::basic_string<char>::__long" }
%"struct.std::__1::basic_string<char>::__long" = type { %struct.anon.6, i64, ptr }
%struct.anon.6 = type { i64 }
%"struct.std::__1::atomic" = type { %"struct.std::__1::__atomic_base" }
%"struct.std::__1::__atomic_base" = type { %"struct.std::__1::__atomic_base.0" }
%"struct.std::__1::__atomic_base.0" = type { %"struct.std::__1::__cxx_atomic_impl" }
%"struct.std::__1::__cxx_atomic_impl" = type { %"struct.std::__1::__cxx_atomic_base_impl" }
%"struct.std::__1::__cxx_atomic_base_impl" = type { i32 }
%"struct.nanogui::Array.2" = type { [2 x i32] }
%"struct.std::__1::aligned_storage<24>::type" = type { [32 x i8] }
%"class.std::__1::function" = type { %"class.std::__1::__function::__value_func" }
%"class.std::__1::__function::__value_func" = type { %"struct.std::__1::aligned_storage<24>::type", ptr, [8 x i8] }
%"class.nanogui::Screen" = type { %"class.nanogui::Widget.base", ptr, ptr, [6 x ptr], i32, %"class.std::__1::vector", %"struct.nanogui::Array.2", float, i32, i32, %"struct.nanogui::Array.2", i8, ptr, double, i8, %"class.nanogui::Color", %"class.std::__1::basic_string", i8, i8, i8, i8, i8, i8, %"class.std::__1::function" }
%"class.nanogui::Widget.base" = type <{ %"class.nanogui::Object.base", [4 x i8], ptr, %"class.nanogui::ref", %"class.nanogui::ref.1", %"struct.nanogui::Array.2", %"struct.nanogui::Array.2", %"struct.nanogui::Array.2", %"class.std::__1::vector", i8, i8, i8, i8, [4 x i8], %"class.std::__1::basic_string", i32, float, i32 }>
%"class.nanogui::Object.base" = type <{ ptr, %"struct.std::__1::atomic" }>
%"class.nanogui::ref" = type { ptr }
%"class.nanogui::ref.1" = type { ptr }
%"class.std::__1::vector" = type { ptr, ptr, %"class.std::__1::__compressed_pair" }
%"class.std::__1::__compressed_pair" = type { %"struct.std::__1::__compressed_pair_elem" }
%"struct.std::__1::__compressed_pair_elem" = type { ptr }

; Function Attrs: mustprogress uwtable
define dso_local void @_ZN3tev11ImageViewer8maximizeEv(ptr noundef nonnull align 16 dereferenceable(972) %0) #4 align 2 {
  %2 = alloca ptr, align 8
  store ptr %0, ptr %2, align 8
  %3 = load ptr, ptr %2, align 8
  %4 = getelementptr inbounds %"class.nanogui::Screen", ptr %3, i32 0, i32 1
  %5 = load ptr, ptr %4, align 8
  call void @glfwMaximizeWindow(ptr noundef %5)
  ret void
}

; Function Attrs: mustprogress uwtable
define dso_local noundef zeroext i1 @_ZN3tev11ImageViewer11isMaximizedEv(ptr noundef nonnull align 16 dereferenceable(972) %0) #4 align 2 {
  %2 = alloca ptr, align 8
  store ptr %0, ptr %2, align 8
  %3 = load ptr, ptr %2, align 8
  %4 = getelementptr inbounds %"class.nanogui::Screen", ptr %3, i32 0, i32 1
  %5 = load ptr, ptr %4, align 8
  %6 = call i32 @glfwGetWindowAttrib(ptr noundef %5, i32 noundef 131080)
  %7 = icmp ne i32 %6, 0
  ret i1 %7
}

; Function Attrs: mustprogress uwtable
define dso_local void @_ZN3tev11ImageViewer15toggleMaximizedEv(ptr noundef nonnull align 16 dereferenceable(972) %0) #4 align 2 {
  %2 = alloca ptr, align 8
  store ptr %0, ptr %2, align 8
  %3 = load ptr, ptr %2, align 8
  %4 = call noundef zeroext i1 @_ZN3tev11ImageViewer11isMaximizedEv(ptr noundef nonnull align 16 dereferenceable(972) %3)
  br i1 %4, label %5, label %8

5:                                                ; preds = %1
  %6 = getelementptr inbounds %"class.nanogui::Screen", ptr %3, i32 0, i32 1
  %7 = load ptr, ptr %6, align 8
  call void @glfwRestoreWindow(ptr noundef %7)
  br label %9

8:                                                ; preds = %1
  call void @_ZN3tev11ImageViewer8maximizeEv(ptr noundef nonnull align 16 dereferenceable(972) %3)
  br label %9

9:                                                ; preds = %8, %5
  ret void
}