; Function Attrs: mustprogress uwtable
define dso_local void @_ZN3tev11ImageViewer15toggleMaximizedEv(ptr nocapture noundef nonnull readonly align 16 dereferenceable(972) %0) local_unnamed_addr #7 align 2 {
  %2 = getelementptr inbounds i8, ptr %0, i64 136
  %3 = load ptr, ptr %2, align 8
  %4 = tail call i32 @glfwGetWindowAttrib(ptr noundef %3, i32 noundef 131080)
  %.not = icmp eq i32 %4, 0
  %5 = load ptr, ptr %2, align 8
  br i1 %.not, label %7, label %6

6:                                                ; preds = %1
  tail call void @glfwRestoreWindow(ptr noundef %5)
  br label %8

7:                                                ; preds = %1
  tail call void @glfwMaximizeWindow(ptr noundef %5)
  br label %8

8:                                                ; preds = %7, %6
  ret void
}